	.arch armv8-a
	.file	"printdec.c"
	.text
.Ltext0:
	.file 0 "/home/elec3607/elec3607-lab/labs/lab7-a64" "printdec.c"
	.align	2
	.global	printdec
	.type	printdec, %function
printdec:
.LFB0:
	.file 1 "printdec.c"
	.loc 1 5 1
	.cfi_startproc
	stp	x29, x30, [sp, -48]!
	.cfi_def_cfa_offset 48
	.cfi_offset 29, -48
	.cfi_offset 30, -40
	mov	x29, sp
	str	w0, [sp, 28]
	.loc 1 6 11
	b	.L2
.L3:
.LBB2:
	.loc 1 8 13
	ldr	w1, [sp, 28]
	mov	w0, 26215
	movk	w0, 0x6666, lsl 16
	smull	x0, w1, w0
	lsr	x0, x0, 32
	asr	w2, w0, 2
	asr	w0, w1, 31
	sub	w2, w2, w0
	mov	w0, w2
	lsl	w0, w0, 2
	add	w0, w0, w2
	lsl	w0, w0, 1
	sub	w0, w1, w0
	str	w0, [sp, 44]
	.loc 1 9 9
	ldr	w0, [sp, 44]
	add	w0, w0, 48
	bl	putchar
	.loc 1 10 11
	ldr	w0, [sp, 28]
	mov	w1, 26215
	movk	w1, 0x6666, lsl 16
	smull	x1, w0, w1
	lsr	x1, x1, 32
	asr	w1, w1, 2
	asr	w0, w0, 31
	sub	w0, w1, w0
	str	w0, [sp, 28]
.L2:
.LBE2:
	.loc 1 6 14
	ldr	w0, [sp, 28]
	cmp	w0, 0
	bgt	.L3
	.loc 1 12 5
	mov	w0, 10
	bl	putchar
	.loc 1 13 1
	nop
	ldp	x29, x30, [sp], 48
	.cfi_restore 30
	.cfi_restore 29
	.cfi_def_cfa_offset 0
	ret
	.cfi_endproc
.LFE0:
	.size	printdec, .-printdec
.Letext0:
	.file 2 "/usr/include/stdio.h"
	.section	.note.GNU-stack,"",@progbits
